target datalayout = "e-m:e-p270:32:32-p271:32:32-p272:64:64-i64:64-i128:128-f80:128-n8:16:32:64-S128"
target triple = "x86_64-pc-linux-gnu"

%struct.stbvox_rotate = type { i8 }
%struct.stbvox_pos = type { i8, i8, i8 }

@stbvox_reverse_face = global [32 x i8] c"\02\03\00\01\05\04\17\16\00\00\00\00\1D\1C\1F\1E\00\00\00\00\1F\1E\07\06\00\00\00\00\0D\0D\0F\0E", align 16

; Function Attrs: nounwind uwtable
define void @stbvox_make_03_split_mesh_for_face(ptr noundef %0, i8 %1, i32 noundef %2, i32 noundef %3, i24 %4, i32 noundef %5, ptr noundef %6, i8 noundef zeroext %7, ptr noundef %8) #0 {
  %10 = alloca %struct.stbvox_rotate, align 1
  %11 = alloca %struct.stbvox_pos, align 1
  %12 = alloca ptr, align 8
  %13 = alloca i32, align 4
  %14 = alloca i32, align 4
  %15 = alloca i32, align 4
  %16 = alloca ptr, align 8
  %17 = alloca i8, align 1
  %18 = alloca ptr, align 8
  %19 = alloca [4 x i32], align 16
  %20 = alloca i8, align 1
  %21 = alloca i8, align 1
  %22 = alloca i24, align 4
  %23 = alloca i24, align 4
  %24 = getelementptr inbounds nuw %struct.stbvox_rotate, ptr %10, i32 0, i32 0
  store i8 %1, ptr %24, align 1
  store i24 %4, ptr %11, align 1
  store ptr %0, ptr %12, align 8, !tbaa !20
  store i32 %2, ptr %13, align 4, !tbaa !3
  store i32 %3, ptr %14, align 4, !tbaa !3
  store i32 %5, ptr %15, align 4, !tbaa !3
  store ptr %6, ptr %16, align 8, !tbaa !58
  store i8 %7, ptr %17, align 1, !tbaa !7
  store ptr %8, ptr %18, align 8, !tbaa !12
  call void @llvm.lifetime.start.p0(i64 16, ptr %19) #4
  call void @llvm.lifetime.start.p0(i64 1, ptr %20) #4
  %25 = load ptr, ptr %18, align 8, !tbaa !12
  %26 = getelementptr inbounds i8, ptr %25, i64 3
  %27 = load i8, ptr %26, align 1, !tbaa !7
  %28 = zext i8 %27 to i64
  %29 = getelementptr inbounds nuw [4 x [4 x [4 x i8]]], ptr @stbvox_face_up_normal_013, i64 0, i64 %28
  %30 = load ptr, ptr %18, align 8, !tbaa !12
  %31 = getelementptr inbounds i8, ptr %30, i64 1
  %32 = load i8, ptr %31, align 1, !tbaa !7
  %33 = zext i8 %32 to i64
  %34 = getelementptr inbounds nuw [4 x [4 x i8]], ptr %29, i64 0, i64 %33
  %35 = load ptr, ptr %18, align 8, !tbaa !12
  %36 = getelementptr inbounds i8, ptr %35, i64 0
  %37 = load i8, ptr %36, align 1, !tbaa !7
  %38 = zext i8 %37 to i64
  %39 = getelementptr inbounds nuw [4 x i8], ptr %34, i64 0, i64 %38
  %40 = load i8, ptr %39, align 1, !tbaa !7
  store i8 %40, ptr %20, align 1, !tbaa !7
  call void @llvm.lifetime.start.p0(i64 1, ptr %21) #4
  %41 = load ptr, ptr %18, align 8, !tbaa !12
  %42 = getelementptr inbounds i8, ptr %41, i64 3
  %43 = load i8, ptr %42, align 1, !tbaa !7
  %44 = zext i8 %43 to i64
  %45 = getelementptr inbounds nuw [4 x [4 x [4 x i8]]], ptr @stbvox_face_up_normal_023, i64 0, i64 %44
  %46 = load ptr, ptr %18, align 8, !tbaa !12
  %47 = getelementptr inbounds i8, ptr %46, i64 2
  %48 = load i8, ptr %47, align 1, !tbaa !7
  %49 = zext i8 %48 to i64
  %50 = getelementptr inbounds nuw [4 x [4 x i8]], ptr %45, i64 0, i64 %49
  %51 = load ptr, ptr %18, align 8, !tbaa !12
  %52 = getelementptr inbounds i8, ptr %51, i64 0
  %53 = load i8, ptr %52, align 1, !tbaa !7
  %54 = zext i8 %53 to i64
  %55 = getelementptr inbounds nuw [4 x i8], ptr %50, i64 0, i64 %54
  %56 = load i8, ptr %55, align 1, !tbaa !7
  store i8 %56, ptr %21, align 1, !tbaa !7
  %57 = load i32, ptr %13, align 4, !tbaa !3
  %58 = icmp eq i32 %57, 5
  br i1 %58, label %59, label %68

59:                                               ; preds = %9
  %60 = load i8, ptr %20, align 1, !tbaa !7
  %61 = zext i8 %60 to i64
  %62 = getelementptr inbounds nuw [32 x i8], ptr @stbvox_reverse_face, i64 0, i64 %61
  %63 = load i8, ptr %62, align 1, !tbaa !7
  store i8 %63, ptr %20, align 1, !tbaa !7
  %64 = load i8, ptr %21, align 1, !tbaa !7
  %65 = zext i8 %64 to i64
  %66 = getelementptr inbounds nuw [32 x i8], ptr @stbvox_reverse_face, i64 0, i64 %65
  %67 = load i8, ptr %66, align 1, !tbaa !7
  store i8 %67, ptr %21, align 1, !tbaa !7
  br label %68

68:                                               ; preds = %59, %9
  %69 = load ptr, ptr %16, align 8, !tbaa !58
  %70 = getelementptr inbounds i32, ptr %69, i64 1
  %71 = load i32, ptr %70, align 4, !tbaa !3
  %72 = getelementptr inbounds [4 x i32], ptr %19, i64 0, i64 0
  store i32 %71, ptr %72, align 16, !tbaa !3
  %73 = load ptr, ptr %16, align 8, !tbaa !58
  %74 = getelementptr inbounds i32, ptr %73, i64 2
  %75 = load i32, ptr %74, align 4, !tbaa !3
  %76 = getelementptr inbounds [4 x i32], ptr %19, i64 0, i64 1
  store i32 %75, ptr %76, align 4, !tbaa !3
  %77 = load ptr, ptr %16, align 8, !tbaa !58
  %78 = getelementptr inbounds i32, ptr %77, i64 3
  %79 = load i32, ptr %78, align 4, !tbaa !3
  %80 = getelementptr inbounds [4 x i32], ptr %19, i64 0, i64 2
  store i32 %79, ptr %80, align 8, !tbaa !3
  %81 = load ptr, ptr %16, align 8, !tbaa !58
  %82 = getelementptr inbounds i32, ptr %81, i64 1
  %83 = load i32, ptr %82, align 4, !tbaa !3
  %84 = getelementptr inbounds [4 x i32], ptr %19, i64 0, i64 3
  store i32 %83, ptr %84, align 4, !tbaa !3
  %85 = load ptr, ptr %12, align 8, !tbaa !20
  %86 = load i32, ptr %13, align 4, !tbaa !3
  %87 = load i32, ptr %14, align 4, !tbaa !3
  %88 = load i32, ptr %15, align 4, !tbaa !3
  %89 = getelementptr inbounds [4 x i32], ptr %19, i64 0, i64 0
  %90 = load i8, ptr %17, align 1, !tbaa !7
  %91 = load i8, ptr %20, align 1, !tbaa !7
  %92 = zext i8 %91 to i32
  %93 = getelementptr inbounds nuw %struct.stbvox_rotate, ptr %10, i32 0, i32 0
  %94 = load i8, ptr %93, align 1
  call void @llvm.memcpy.p0.p0.i64(ptr align 4 %22, ptr align 1 %11, i64 3, i1 false)
  %95 = load i24, ptr %22, align 4
  call void @stbvox_make_mesh_for_face(ptr noundef %85, i8 %94, i32 noundef %86, i32 noundef %87, i24 %95, i32 noundef %88, ptr noundef %89, i8 noundef zeroext %90, i32 noundef %92)
  %96 = load ptr, ptr %16, align 8, !tbaa !58
  %97 = getelementptr inbounds i32, ptr %96, i64 3
  %98 = load i32, ptr %97, align 4, !tbaa !3
  %99 = getelementptr inbounds [4 x i32], ptr %19, i64 0, i64 1
  store i32 %98, ptr %99, align 4, !tbaa !3
  %100 = load ptr, ptr %16, align 8, !tbaa !58
  %101 = getelementptr inbounds i32, ptr %100, i64 0
  %102 = load i32, ptr %101, align 4, !tbaa !3
  %103 = getelementptr inbounds [4 x i32], ptr %19, i64 0, i64 2
  store i32 %102, ptr %103, align 8, !tbaa !3
  %104 = load ptr, ptr %12, align 8, !tbaa !20
  %105 = load i32, ptr %13, align 4, !tbaa !3
  %106 = load i32, ptr %14, align 4, !tbaa !3
  %107 = load i32, ptr %15, align 4, !tbaa !3
  %108 = getelementptr inbounds [4 x i32], ptr %19, i64 0, i64 0
  %109 = load i8, ptr %17, align 1, !tbaa !7
  %110 = load i8, ptr %21, align 1, !tbaa !7
  %111 = zext i8 %110 to i32
  %112 = getelementptr inbounds nuw %struct.stbvox_rotate, ptr %10, i32 0, i32 0
  %113 = load i8, ptr %112, align 1
  call void @llvm.memcpy.p0.p0.i64(ptr align 4 %23, ptr align 1 %11, i64 3, i1 false)
  %114 = load i24, ptr %23, align 4
  call void @stbvox_make_mesh_for_face(ptr noundef %104, i8 %113, i32 noundef %105, i32 noundef %106, i24 %114, i32 noundef %107, ptr noundef %108, i8 noundef zeroext %109, i32 noundef %111)
  call void @llvm.lifetime.end.p0(i64 1, ptr %21) #4
  call void @llvm.lifetime.end.p0(i64 1, ptr %20) #4
  call void @llvm.lifetime.end.p0(i64 16, ptr %19) #4
  ret void
}